target datalayout = "e-m:e-p270:32:32-p271:32:32-p272:64:64-i64:64-i128:128-f80:128-n8:16:32:64-S128"
target triple = "x86_64-pc-linux-gnu"

%struct.Query = type { i32, i32, i32, i64, i8, ptr, i32, i8, i8, i8, i8, i8, i8, i8, i8, i8, i8, i8, ptr, ptr, ptr, ptr, ptr, i32, ptr, ptr, i32, ptr, ptr, ptr, ptr, ptr, i8, ptr, ptr, ptr, ptr, ptr, ptr, ptr, i32, ptr, ptr, ptr, ptr, i32, i32 }
%struct.PlannerInfo = type { i32, ptr, ptr, i32, ptr, ptr, ptr, ptr, i32, ptr, ptr, ptr, ptr, ptr, ptr, ptr, ptr, i32, ptr, ptr, ptr, ptr, ptr, i8, ptr, ptr, ptr, ptr, ptr, i32, ptr, ptr, ptr, ptr, ptr, ptr, ptr, i32, ptr, ptr, ptr, i32, ptr, ptr, ptr, ptr, ptr, ptr, [8 x ptr], [8 x ptr], ptr, ptr, ptr, ptr, ptr, ptr, ptr, double, double, double, i32, i8, i8, i8, i8, i8, i8, i8, i32, ptr, ptr, i32, i8, i8, i32, ptr, ptr, ptr, ptr, ptr, ptr, i8, ptr }
%union.ListCell = type { ptr }
%struct.Node = type { i32 }
%struct.RangeTblEntry = type { i32, ptr, ptr, i32, i32, i8, i8, i32, i32, ptr, ptr, i8, i32, i32, ptr, ptr, ptr, ptr, ptr, i8, ptr, ptr, ptr, i32, i8, ptr, ptr, ptr, ptr, double, ptr, i8, i8, ptr }
%struct.RelOptInfo = type { i32, i32, ptr, double, i8, i8, i8, ptr, ptr, ptr, ptr, ptr, ptr, ptr, ptr, ptr, ptr, i32, i32, i32, i16, i16, ptr, ptr, ptr, ptr, ptr, ptr, ptr, ptr, i32, double, double, ptr, ptr, ptr, i32, i32, i32, i32, i8, ptr, ptr, ptr, ptr, ptr, %struct.QualCost, i32, ptr, i8, i8, ptr, ptr, ptr, ptr, i32, ptr, i8, ptr, ptr, ptr, ptr, ptr, ptr }
%struct.QualCost = type { double, double }
%struct.RelationData = type { %struct.RelFileLocator, ptr, i32, i32, i8, i8, i8, i8, i8, i32, i32, i32, i32, ptr, ptr, i32, %struct.LockInfoData, ptr, ptr, ptr, ptr, ptr, i8, ptr, ptr, ptr, ptr, ptr, ptr, i32, ptr, i8, ptr, ptr, i32, i8, i32, ptr, i8, ptr, ptr, ptr, ptr, ptr, ptr, ptr, i32, ptr, ptr, ptr, ptr, ptr, ptr, ptr, ptr, ptr, ptr, ptr, ptr, ptr, ptr, ptr, ptr, ptr, ptr, ptr, i32, i8, ptr }
%struct.RelFileLocator = type { i32, i32, i32 }
%struct.LockInfoData = type { %struct.LockRelId }
%struct.LockRelId = type { i32, i32 }
%struct.FormData_pg_class = type { i32, %struct.nameData, i32, i32, i32, i32, i32, i32, i32, i32, float, i32, i32, i8, i8, i8, i8, i16, i16, i8, i8, i8, i8, i8, i8, i8, i8, i32, i32, i32 }
%struct.nameData = type { [64 x i8] }

@IsUnderPostmaster = external global i8, align 1
@CurrentMemoryContext = external global ptr, align 8
@maintenance_work_mem = external global i32, align 4
@max_parallel_maintenance_workers = external global i32, align 4

; Function Attrs: inlinehint nounwind uwtable
define internal ptr @newNode(i64 noundef %0, i32 noundef %1) #2 {
  %3 = alloca i64, align 8
  %4 = alloca i32, align 4
  %5 = alloca ptr, align 8
  store i64 %0, ptr %3, align 8
  store i32 %1, ptr %4, align 4
  call void @llvm.lifetime.start.p0(i64 8, ptr %5) #8
  %6 = load i64, ptr %3, align 8
  %7 = call ptr @palloc0(i64 noundef %6)
  store ptr %7, ptr %5, align 8
  %8 = load i32, ptr %4, align 4
  %9 = load ptr, ptr %5, align 8
  %10 = getelementptr inbounds nuw %struct.Node, ptr %9, i32 0, i32 0
  store i32 %8, ptr %10, align 4
  %11 = load ptr, ptr %5, align 8
  call void @llvm.lifetime.end.p0(i64 8, ptr %5) #8
  ret ptr %11
}

; Function Attrs: nounwind uwtable
define dso_local i32 @plan_create_index_workers(i32 noundef %0, i32 noundef %1) #0 {
  %3 = alloca i32, align 4
  %4 = alloca i32, align 4
  %5 = alloca i32, align 4
  %6 = alloca ptr, align 8
  %7 = alloca ptr, align 8
  %8 = alloca ptr, align 8
  %9 = alloca ptr, align 8
  %10 = alloca ptr, align 8
  %11 = alloca ptr, align 8
  %12 = alloca ptr, align 8
  %13 = alloca i32, align 4
  %14 = alloca i32, align 4
  %15 = alloca double, align 8
  %16 = alloca double, align 8
  %17 = alloca i32, align 4
  %18 = alloca %union.ListCell, align 8
  %19 = alloca %union.ListCell, align 8
  store i32 %0, ptr %4, align 4
  store i32 %1, ptr %5, align 4
  call void @llvm.lifetime.start.p0(i64 8, ptr %6) #8
  call void @llvm.lifetime.start.p0(i64 8, ptr %7) #8
  call void @llvm.lifetime.start.p0(i64 8, ptr %8) #8
  call void @llvm.lifetime.start.p0(i64 8, ptr %9) #8
  call void @llvm.lifetime.start.p0(i64 8, ptr %10) #8
  call void @llvm.lifetime.start.p0(i64 8, ptr %11) #8
  call void @llvm.lifetime.start.p0(i64 8, ptr %12) #8
  call void @llvm.lifetime.start.p0(i64 4, ptr %13) #8
  call void @llvm.lifetime.start.p0(i64 4, ptr %14) #8
  call void @llvm.lifetime.start.p0(i64 8, ptr %15) #8
  call void @llvm.lifetime.start.p0(i64 8, ptr %16) #8
  %20 = load i8, ptr @IsUnderPostmaster, align 1, !range !4, !noundef !5
  %21 = trunc i8 %20 to i1
  br i1 %21, label %22, label %25

22:                                               ; preds = %2
  %23 = load i32, ptr @max_parallel_maintenance_workers, align 4
  %24 = icmp eq i32 %23, 0
  br i1 %24, label %25, label %26

25:                                               ; preds = %22, %2
  store i32 0, ptr %3, align 4
  store i32 1, ptr %17, align 4
  br label %147

26:                                               ; preds = %22
  %27 = call ptr @newNode(i64 noundef 280, i32 noundef 67)
  store ptr %27, ptr %7, align 8
  %28 = load ptr, ptr %7, align 8
  %29 = getelementptr inbounds nuw %struct.Query, ptr %28, i32 0, i32 1
  store i32 1, ptr %29, align 4
  %30 = call ptr @newNode(i64 noundef 168, i32 noundef 265)
  store ptr %30, ptr %8, align 8
  %31 = call ptr @newNode(i64 noundef 704, i32 noundef 266)
  store ptr %31, ptr %6, align 8
  %32 = load ptr, ptr %7, align 8
  %33 = load ptr, ptr %6, align 8
  %34 = getelementptr inbounds nuw %struct.PlannerInfo, ptr %33, i32 0, i32 1
  store ptr %32, ptr %34, align 8
  %35 = load ptr, ptr %8, align 8
  %36 = load ptr, ptr %6, align 8
  %37 = getelementptr inbounds nuw %struct.PlannerInfo, ptr %36, i32 0, i32 2
  store ptr %35, ptr %37, align 8
  %38 = load ptr, ptr %6, align 8
  %39 = getelementptr inbounds nuw %struct.PlannerInfo, ptr %38, i32 0, i32 3
  store i32 1, ptr %39, align 8
  %40 = load ptr, ptr @CurrentMemoryContext, align 8
  %41 = load ptr, ptr %6, align 8
  %42 = getelementptr inbounds nuw %struct.PlannerInfo, ptr %41, i32 0, i32 56
  store ptr %40, ptr %42, align 8
  %43 = load ptr, ptr %6, align 8
  %44 = getelementptr inbounds nuw %struct.PlannerInfo, ptr %43, i32 0, i32 74
  store i32 -1, ptr %44, align 8
  %45 = call ptr @newNode(i64 noundef 16, i32 noundef 271)
  store ptr %45, ptr %18, align 8
  %46 = getelementptr inbounds nuw %union.ListCell, ptr %18, i32 0, i32 0
  %47 = load ptr, ptr %46, align 8
  %48 = call ptr @list_make1_impl(i32 noundef 1, ptr %47)
  %49 = load ptr, ptr %6, align 8
  %50 = getelementptr inbounds nuw %struct.PlannerInfo, ptr %49, i32 0, i32 21
  store ptr %48, ptr %50, align 8
  %51 = call ptr @newNode(i64 noundef 224, i32 noundef 101)
  store ptr %51, ptr %9, align 8
  %52 = load ptr, ptr %9, align 8
  %53 = getelementptr inbounds nuw %struct.RangeTblEntry, ptr %52, i32 0, i32 3
  store i32 0, ptr %53, align 8
  %54 = load i32, ptr %4, align 4
  %55 = load ptr, ptr %9, align 8
  %56 = getelementptr inbounds nuw %struct.RangeTblEntry, ptr %55, i32 0, i32 4
  store i32 %54, ptr %56, align 4
  %57 = load ptr, ptr %9, align 8
  %58 = getelementptr inbounds nuw %struct.RangeTblEntry, ptr %57, i32 0, i32 6
  store i8 114, ptr %58, align 1
  %59 = load ptr, ptr %9, align 8
  %60 = getelementptr inbounds nuw %struct.RangeTblEntry, ptr %59, i32 0, i32 7
  store i32 1, ptr %60, align 4
  %61 = load ptr, ptr %9, align 8
  %62 = getelementptr inbounds nuw %struct.RangeTblEntry, ptr %61, i32 0, i32 31
  store i8 0, ptr %62, align 8
  %63 = load ptr, ptr %9, align 8
  %64 = getelementptr inbounds nuw %struct.RangeTblEntry, ptr %63, i32 0, i32 5
  store i8 1, ptr %64, align 8
  %65 = load ptr, ptr %9, align 8
  %66 = getelementptr inbounds nuw %struct.RangeTblEntry, ptr %65, i32 0, i32 32
  store i8 1, ptr %66, align 1
  %67 = load ptr, ptr %9, align 8
  store ptr %67, ptr %19, align 8
  %68 = getelementptr inbounds nuw %union.ListCell, ptr %19, i32 0, i32 0
  %69 = load ptr, ptr %68, align 8
  %70 = call ptr @list_make1_impl(i32 noundef 1, ptr %69)
  %71 = load ptr, ptr %7, align 8
  %72 = getelementptr inbounds nuw %struct.Query, ptr %71, i32 0, i32 19
  store ptr %70, ptr %72, align 8
  %73 = load ptr, ptr %7, align 8
  %74 = getelementptr inbounds nuw %struct.Query, ptr %73, i32 0, i32 20
  %75 = load ptr, ptr %9, align 8
  %76 = call ptr @addRTEPermissionInfo(ptr noundef %74, ptr noundef %75)
  %77 = load ptr, ptr %6, align 8
  call void @setup_simple_rel_arrays(ptr noundef %77)
  %78 = load ptr, ptr %6, align 8
  %79 = call ptr @build_simple_rel(ptr noundef %78, i32 noundef 1, ptr noundef null)
  store ptr %79, ptr %12, align 8
  %80 = load i32, ptr %4, align 4
  %81 = call ptr @table_open(i32 noundef %80, i32 noundef 0)
  store ptr %81, ptr %10, align 8
  %82 = load i32, ptr %5, align 4
  %83 = call ptr @index_open(i32 noundef %82, i32 noundef 0)
  store ptr %83, ptr %11, align 8
  %84 = load ptr, ptr %10, align 8
  %85 = getelementptr inbounds nuw %struct.RelationData, ptr %84, i32 0, i32 13
  %86 = load ptr, ptr %85, align 8
  %87 = getelementptr inbounds nuw %struct.FormData_pg_class, ptr %86, i32 0, i32 15
  %88 = load i8, ptr %87, align 2
  %89 = sext i8 %88 to i32
  %90 = icmp eq i32 %89, 116
  br i1 %90, label %101, label %91

91:                                               ; preds = %26
  %92 = load ptr, ptr %6, align 8
  %93 = load ptr, ptr %11, align 8
  %94 = call ptr @RelationGetIndexExpressions(ptr noundef %93)
  %95 = call zeroext i1 @is_parallel_safe(ptr noundef %92, ptr noundef %94)
  br i1 %95, label %96, label %101

96:                                               ; preds = %91
  %97 = load ptr, ptr %6, align 8
  %98 = load ptr, ptr %11, align 8
  %99 = call ptr @RelationGetIndexPredicate(ptr noundef %98)
  %100 = call zeroext i1 @is_parallel_safe(ptr noundef %97, ptr noundef %99)
  br i1 %100, label %102, label %101

101:                                              ; preds = %96, %91, %26
  store i32 0, ptr %13, align 4
  br label %143

102:                                              ; preds = %96
  %103 = load ptr, ptr %12, align 8
  %104 = getelementptr inbounds nuw %struct.RelOptInfo, ptr %103, i32 0, i32 36
  %105 = load i32, ptr %104, align 8
  %106 = icmp ne i32 %105, -1
  br i1 %106, label %107, label %121

107:                                              ; preds = %102
  %108 = load ptr, ptr %12, align 8
  %109 = getelementptr inbounds nuw %struct.RelOptInfo, ptr %108, i32 0, i32 36
  %110 = load i32, ptr %109, align 8
  %111 = load i32, ptr @max_parallel_maintenance_workers, align 4
  %112 = icmp slt i32 %110, %111
  br i1 %112, label %113, label %117

113:                                              ; preds = %107
  %114 = load ptr, ptr %12, align 8
  %115 = getelementptr inbounds nuw %struct.RelOptInfo, ptr %114, i32 0, i32 36
  %116 = load i32, ptr %115, align 8
  br label %119

117:                                              ; preds = %107
  %118 = load i32, ptr @max_parallel_maintenance_workers, align 4
  br label %119

119:                                              ; preds = %117, %113
  %120 = phi i32 [ %116, %113 ], [ %118, %117 ]
  store i32 %120, ptr %13, align 4
  br label %143

121:                                              ; preds = %102
  %122 = load ptr, ptr %10, align 8
  call void @estimate_rel_size(ptr noundef %122, ptr noundef null, ptr noundef %14, ptr noundef %15, ptr noundef %16)
  %123 = load ptr, ptr %12, align 8
  %124 = load i32, ptr %14, align 4
  %125 = uitofp i32 %124 to double
  %126 = load i32, ptr @max_parallel_maintenance_workers, align 4
  %127 = call i32 @compute_parallel_worker(ptr noundef %123, double noundef %125, double noundef -1.000000e+00, i32 noundef %126)
  store i32 %127, ptr %13, align 4
  br label %128

128:                                              ; preds = %139, %121
  %129 = load i32, ptr %13, align 4
  %130 = icmp sgt i32 %129, 0
  br i1 %130, label %131, label %137

131:                                              ; preds = %128
  %132 = load i32, ptr @maintenance_work_mem, align 4
  %133 = load i32, ptr %13, align 4
  %134 = add i32 %133, 1
  %135 = sdiv i32 %132, %134
  %136 = icmp slt i32 %135, 32768
  br label %137

137:                                              ; preds = %131, %128
  %138 = phi i1 [ false, %128 ], [ %136, %131 ]
  br i1 %138, label %139, label %142

139:                                              ; preds = %137
  %140 = load i32, ptr %13, align 4
  %141 = add i32 %140, -1
  store i32 %141, ptr %13, align 4
  br label %128, !llvm.loop !28

142:                                              ; preds = %137
  br label %143

143:                                              ; preds = %142, %119, %101
  %144 = load ptr, ptr %11, align 8
  call void @index_close(ptr noundef %144, i32 noundef 0)
  %145 = load ptr, ptr %10, align 8
  call void @table_close(ptr noundef %145, i32 noundef 0)
  %146 = load i32, ptr %13, align 4
  store i32 %146, ptr %3, align 4
  store i32 1, ptr %17, align 4
  br label %147

147:                                              ; preds = %143, %25
  call void @llvm.lifetime.end.p0(i64 8, ptr %16) #8
  call void @llvm.lifetime.end.p0(i64 8, ptr %15) #8
  call void @llvm.lifetime.end.p0(i64 4, ptr %14) #8
  call void @llvm.lifetime.end.p0(i64 4, ptr %13) #8
  call void @llvm.lifetime.end.p0(i64 8, ptr %12) #8
  call void @llvm.lifetime.end.p0(i64 8, ptr %11) #8
  call void @llvm.lifetime.end.p0(i64 8, ptr %10) #8
  call void @llvm.lifetime.end.p0(i64 8, ptr %9) #8
  call void @llvm.lifetime.end.p0(i64 8, ptr %8) #8
  call void @llvm.lifetime.end.p0(i64 8, ptr %7) #8
  call void @llvm.lifetime.end.p0(i64 8, ptr %6) #8
  %148 = load i32, ptr %3, align 4
  ret i32 %148
}