; Function Attrs: nounwind uwtable
define dso_local i32 @plan_create_index_workers(i32 noundef %0, i32 noundef %1) local_unnamed_addr #0 {
  %3 = alloca i32, align 4
  %4 = alloca double, align 8
  %5 = alloca double, align 8
  call void @llvm.lifetime.start.p0(i64 4, ptr nonnull %3) #12
  call void @llvm.lifetime.start.p0(i64 8, ptr nonnull %4) #12
  call void @llvm.lifetime.start.p0(i64 8, ptr nonnull %5) #12
  %6 = load i8, ptr @IsUnderPostmaster, align 1, !range !4, !noundef !5
  %7 = trunc nuw i8 %6 to i1
  %8 = load i32, ptr @max_parallel_maintenance_workers, align 4
  %9 = icmp ne i32 %8, 0
  %or.cond.not = select i1 %7, i1 %9, i1 false
  br i1 %or.cond.not, label %10, label %69

10:                                               ; preds = %2
  %11 = tail call noundef ptr @palloc0(i64 noundef 280) #12
  store i32 67, ptr %11, align 4
  %12 = getelementptr inbounds nuw i8, ptr %11, i64 4
  store i32 1, ptr %12, align 4
  %13 = tail call noundef ptr @palloc0(i64 noundef 168) #12
  store i32 265, ptr %13, align 4
  %14 = tail call noundef ptr @palloc0(i64 noundef 704) #12
  store i32 266, ptr %14, align 4
  %15 = getelementptr inbounds nuw i8, ptr %14, i64 8
  store ptr %11, ptr %15, align 8
  %16 = getelementptr inbounds nuw i8, ptr %14, i64 16
  store ptr %13, ptr %16, align 8
  %17 = getelementptr inbounds nuw i8, ptr %14, i64 24
  store i32 1, ptr %17, align 8
  %18 = load ptr, ptr @CurrentMemoryContext, align 8
  %19 = getelementptr inbounds nuw i8, ptr %14, i64 560
  store ptr %18, ptr %19, align 8
  %20 = getelementptr inbounds nuw i8, ptr %14, i64 632
  store i32 -1, ptr %20, align 8
  %21 = tail call noundef ptr @palloc0(i64 noundef 16) #12
  store i32 271, ptr %21, align 4
  %22 = tail call ptr @list_make1_impl(i32 noundef 1, ptr nonnull %21) #12
  %23 = getelementptr inbounds nuw i8, ptr %14, i64 168
  store ptr %22, ptr %23, align 8
  %24 = tail call noundef ptr @palloc0(i64 noundef 224) #12
  store i32 101, ptr %24, align 4
  %25 = getelementptr inbounds nuw i8, ptr %24, i64 24
  store i32 0, ptr %25, align 8
  %26 = getelementptr inbounds nuw i8, ptr %24, i64 28
  store i32 %0, ptr %26, align 4
  %27 = getelementptr inbounds nuw i8, ptr %24, i64 33
  store i8 114, ptr %27, align 1
  %28 = getelementptr inbounds nuw i8, ptr %24, i64 36
  store i32 1, ptr %28, align 4
  %29 = getelementptr inbounds nuw i8, ptr %24, i64 208
  store i8 0, ptr %29, align 8
  %30 = getelementptr inbounds nuw i8, ptr %24, i64 32
  store i8 1, ptr %30, align 8
  %31 = getelementptr inbounds nuw i8, ptr %24, i64 209
  store i8 1, ptr %31, align 1
  %32 = tail call ptr @list_make1_impl(i32 noundef 1, ptr nonnull %24) #12
  %33 = getelementptr inbounds nuw i8, ptr %11, i64 64
  store ptr %32, ptr %33, align 8
  %34 = getelementptr inbounds nuw i8, ptr %11, i64 72
  %35 = tail call ptr @addRTEPermissionInfo(ptr noundef nonnull %34, ptr noundef nonnull %24) #12
  tail call void @setup_simple_rel_arrays(ptr noundef nonnull %14) #12
  %36 = tail call ptr @build_simple_rel(ptr noundef nonnull %14, i32 noundef 1, ptr noundef null) #12
  %37 = tail call ptr @table_open(i32 noundef %0, i32 noundef 0) #12
  %38 = tail call ptr @index_open(i32 noundef %1, i32 noundef 0) #12
  %39 = getelementptr inbounds nuw i8, ptr %37, i64 56
  %40 = load ptr, ptr %39, align 8
  %41 = getelementptr inbounds nuw i8, ptr %40, i64 114
  %42 = load i8, ptr %41, align 2
  %43 = icmp eq i8 %42, 116
  br i1 %43, label %.critedge, label %44

44:                                               ; preds = %10
  %45 = tail call ptr @RelationGetIndexExpressions(ptr noundef %38) #12
  %46 = tail call zeroext i1 @is_parallel_safe(ptr noundef nonnull %14, ptr noundef %45) #12
  br i1 %46, label %47, label %.critedge

47:                                               ; preds = %44
  %48 = tail call ptr @RelationGetIndexPredicate(ptr noundef %38) #12
  %49 = tail call zeroext i1 @is_parallel_safe(ptr noundef nonnull %14, ptr noundef %48) #12
  br i1 %49, label %50, label %.critedge

50:                                               ; preds = %47
  %51 = getelementptr inbounds nuw i8, ptr %36, i64 240
  %52 = load i32, ptr %51, align 8
  %.not = icmp eq i32 %52, -1
  br i1 %.not, label %55, label %53

53:                                               ; preds = %50
  %54 = load i32, ptr @max_parallel_maintenance_workers, align 4
  %. = tail call i32 @llvm.smin.i32(i32 %52, i32 %54)
  br label %.critedge

55:                                               ; preds = %50
  call void @estimate_rel_size(ptr noundef nonnull %37, ptr noundef null, ptr noundef nonnull %3, ptr noundef nonnull %4, ptr noundef nonnull %5) #12
  %56 = load i32, ptr %3, align 4
  %57 = uitofp i32 %56 to double
  %58 = load i32, ptr @max_parallel_maintenance_workers, align 4
  %59 = call i32 @compute_parallel_worker(ptr noundef nonnull %36, double noundef %57, double noundef -1.000000e+00, i32 noundef %58) #12
  %60 = icmp sgt i32 %59, 0
  br i1 %60, label %.lr.ph, label %.critedge

.lr.ph:                                           ; preds = %55
  %61 = load i32, ptr @maintenance_work_mem, align 4
  br label %62

62:                                               ; preds = %.lr.ph, %66
  %.147 = phi i32 [ %59, %.lr.ph ], [ %67, %66 ]
  %63 = add nuw i32 %.147, 1
  %64 = sdiv i32 %61, %63
  %65 = icmp slt i32 %64, 32768
  br i1 %65, label %66, label %.critedge

66:                                               ; preds = %62
  %67 = add nsw i32 %.147, -1
  %68 = icmp sgt i32 %.147, 1
  br i1 %68, label %62, label %.critedge, !llvm.loop !28

.critedge:                                        ; preds = %66, %62, %55, %10, %44, %47, %53
  %.043 = phi i32 [ %., %53 ], [ 0, %47 ], [ 0, %44 ], [ 0, %10 ], [ %59, %55 ], [ 0, %66 ], [ %.147, %62 ]
  call void @index_close(ptr noundef %38, i32 noundef 0) #12
  call void @table_close(ptr noundef %37, i32 noundef 0) #12
  br label %69

69:                                               ; preds = %2, %.critedge
  %.0 = phi i32 [ %.043, %.critedge ], [ 0, %2 ]
  call void @llvm.lifetime.end.p0(i64 8, ptr nonnull %5) #12
  call void @llvm.lifetime.end.p0(i64 8, ptr nonnull %4) #12
  call void @llvm.lifetime.end.p0(i64 4, ptr nonnull %3) #12
  ret i32 %.0
}